; ModuleID = 'source-C-CXX/46/5195.c'
source_filename = "source-C-CXX/46/5195.c"
target datalayout = "e-m:e-p270:32:32-p271:32:32-p272:64:64-i64:64-f80:128-n8:16:32:64-S128"
target triple = "x86_64-pc-linux-gnu"

@.str = private unnamed_addr constant [3 x i8] c"%d\00", align 1
@.str.1 = private unnamed_addr constant [4 x i8] c"%d \00", align 1

; Function Attrs: nofree nounwind sspstrong uwtable
define dso_local void @main() local_unnamed_addr #0 {
  %1 = alloca i32, align 4
  %2 = alloca [100 x i32], align 16
  %3 = bitcast i32* %1 to i8*
  call void @llvm.lifetime.start.p0i8(i64 4, i8* nonnull %3) #3
  %4 = call i32 (i8*, ...) @__isoc99_scanf(i8* getelementptr inbounds ([3 x i8], [3 x i8]* @.str, i64 0, i64 0), i32* nonnull %1)
  %5 = bitcast [100 x i32]* %2 to i8*
  call void @llvm.lifetime.start.p0i8(i64 400, i8* nonnull %5) #3
  %6 = load i32, i32* %1, align 4, !tbaa !5
  %7 = add nsw i32 %6, -1
  %8 = sext i32 %7 to i64
  %9 = getelementptr inbounds [100 x i32], [100 x i32]* %2, i64 0, i64 %8
  %10 = icmp sgt i32 %6, 0
  br i1 %10, label %11, label %33

11:                                               ; preds = %0
  %12 = getelementptr inbounds [100 x i32], [100 x i32]* %2, i64 0, i64 0
  br label %15

13:                                               ; preds = %15
  %14 = icmp sgt i32 %21, 1
  br i1 %14, label %23, label %33

15:                                               ; preds = %11, %15
  %16 = phi i32* [ %20, %15 ], [ %12, %11 ]
  %17 = phi i32 [ %19, %15 ], [ 0, %11 ]
  %18 = call i32 (i8*, ...) @__isoc99_scanf(i8* getelementptr inbounds ([3 x i8], [3 x i8]* @.str, i64 0, i64 0), i32* nonnull %16)
  %19 = add nuw nsw i32 %17, 1
  %20 = getelementptr inbounds i32, i32* %16, i64 1
  %21 = load i32, i32* %1, align 4, !tbaa !5
  %22 = icmp slt i32 %19, %21
  br i1 %22, label %15, label %13, !llvm.loop !9

23:                                               ; preds = %13, %23
  %24 = phi i32* [ %29, %23 ], [ %9, %13 ]
  %25 = phi i32 [ %28, %23 ], [ 0, %13 ]
  %26 = load i32, i32* %24, align 4, !tbaa !5
  %27 = call i32 (i8*, ...) @printf(i8* nonnull dereferenceable(1) getelementptr inbounds ([4 x i8], [4 x i8]* @.str.1, i64 0, i64 0), i32 %26)
  %28 = add nuw nsw i32 %25, 1
  %29 = getelementptr inbounds i32, i32* %24, i64 -1
  %30 = load i32, i32* %1, align 4, !tbaa !5
  %31 = add nsw i32 %30, -1
  %32 = icmp slt i32 %28, %31
  br i1 %32, label %23, label %33, !llvm.loop !11

33:                                               ; preds = %23, %0, %13
  %34 = phi i32* [ %9, %13 ], [ %9, %0 ], [ %29, %23 ]
  %35 = load i32, i32* %34, align 4, !tbaa !5
  %36 = call i32 (i8*, ...) @printf(i8* nonnull dereferenceable(1) getelementptr inbounds ([3 x i8], [3 x i8]* @.str, i64 0, i64 0), i32 %35)
  call void @llvm.lifetime.end.p0i8(i64 400, i8* nonnull %5) #3
  call void @llvm.lifetime.end.p0i8(i64 4, i8* nonnull %3) #3
  ret void
}

; Function Attrs: argmemonly mustprogress nofree nosync nounwind willreturn
declare void @llvm.lifetime.start.p0i8(i64 immarg, i8* nocapture) #1

; Function Attrs: nofree nounwind
declare noundef i32 @__isoc99_scanf(i8* nocapture noundef readonly, ...) local_unnamed_addr #2

; Function Attrs: nofree nounwind
declare noundef i32 @printf(i8* nocapture noundef readonly, ...) local_unnamed_addr #2

; Function Attrs: argmemonly mustprogress nofree nosync nounwind willreturn
declare void @llvm.lifetime.end.p0i8(i64 immarg, i8* nocapture) #1


!llvm.module.flags = !{!0, !1, !2, !3}
!llvm.ident = !{!4}

!0 = !{i32 1, !"wchar_size", i32 4}
!1 = !{i32 7, !"PIC Level", i32 2}
!2 = !{i32 7, !"PIE Level", i32 2}
!3 = !{i32 7, !"uwtable", i32 1}
!4 = !{!"clang version 13.0.0"}
!5 = !{!6, !6, i64 0}
!6 = !{!"int", !7, i64 0}
!7 = !{!"omnipotent char", !8, i64 0}
!8 = !{!"Simple C/C++ TBAA"}
!9 = distinct !{!9, !10}
!10 = !{!"llvm.loop.mustprogress"}
!11 = distinct !{!11, !10}
